target datalayout = "e-m:e-p270:32:32-p271:32:32-p272:64:64-i64:64-i128:128-f80:128-n8:16:32:64-S128"
target triple = "x86_64-unknown-linux-gnu"

%"class.Imath_3_2::Box" = type { %"class.Imath_3_2::Vec2", %"class.Imath_3_2::Vec2" }
%"class.Imath_3_2::Vec2" = type { i32, i32 }
%"class.Imf_3_2::TileDescription" = type { i32, i32, i32, i32 }

; Function Attrs: mustprogress uwtable
define hidden noundef ptr @_ZN7Imf_3_218MultiPartInputFile4Data17createTileOffsetsERKNS_6HeaderE(ptr noundef nonnull align 8 dereferenceable(168) %this, ptr noundef nonnull align 8 dereferenceable(49) %header) #4 align 2 personality ptr @__gxx_personality_v0 {
entry:
  %this.addr = alloca ptr, align 8
  %header.addr = alloca ptr, align 8
  %dataWindow = alloca ptr, align 8
  %minX = alloca i32, align 4
  %maxX = alloca i32, align 4
  %minY = alloca i32, align 4
  %maxY = alloca i32, align 4
  %numXTiles = alloca ptr, align 8
  %numYTiles = alloca ptr, align 8
  %numXLevels = alloca i32, align 4
  %numYLevels = alloca i32, align 4
  %tileDesc = alloca %"class.Imf_3_2::TileDescription", align 4
  %exn.slot = alloca ptr, align 8
  %ehselector.slot = alloca i32, align 4
  %tileOffsets = alloca ptr, align 8
  store ptr %this, ptr %this.addr, align 8
  store ptr %header, ptr %header.addr, align 8
  %0 = load ptr, ptr %header.addr, align 8
  %call = call noundef nonnull align 4 dereferenceable(16) ptr @_ZNK7Imf_3_26Header10dataWindowEv(ptr noundef nonnull align 8 dereferenceable(49) %0)
  store ptr %call, ptr %dataWindow, align 8
  %1 = load ptr, ptr %dataWindow, align 8
  %min = getelementptr inbounds %"class.Imath_3_2::Box", ptr %1, i32 0, i32 0
  %x = getelementptr inbounds %"class.Imath_3_2::Vec2", ptr %min, i32 0, i32 0
  %2 = load i32, ptr %x, align 4
  store i32 %2, ptr %minX, align 4
  %3 = load ptr, ptr %dataWindow, align 8
  %max = getelementptr inbounds %"class.Imath_3_2::Box", ptr %3, i32 0, i32 1
  %x2 = getelementptr inbounds %"class.Imath_3_2::Vec2", ptr %max, i32 0, i32 0
  %4 = load i32, ptr %x2, align 4
  store i32 %4, ptr %maxX, align 4
  %5 = load ptr, ptr %dataWindow, align 8
  %min3 = getelementptr inbounds %"class.Imath_3_2::Box", ptr %5, i32 0, i32 0
  %y = getelementptr inbounds %"class.Imath_3_2::Vec2", ptr %min3, i32 0, i32 1
  %6 = load i32, ptr %y, align 4
  store i32 %6, ptr %minY, align 4
  %7 = load ptr, ptr %dataWindow, align 8
  %max4 = getelementptr inbounds %"class.Imath_3_2::Box", ptr %7, i32 0, i32 1
  %y5 = getelementptr inbounds %"class.Imath_3_2::Vec2", ptr %max4, i32 0, i32 1
  %8 = load i32, ptr %y5, align 4
  store i32 %8, ptr %maxY, align 4
  store ptr null, ptr %numXTiles, align 8
  store ptr null, ptr %numYTiles, align 8
  %9 = load ptr, ptr %header.addr, align 8
  %call6 = call noundef nonnull align 4 dereferenceable(16) ptr @_ZNK7Imf_3_26Header15tileDescriptionEv(ptr noundef nonnull align 8 dereferenceable(49) %9)
  call void @llvm.memcpy.p0.p0.i64(ptr align 4 %tileDesc, ptr align 4 %call6, i64 16, i1 false)
  %10 = load i32, ptr %minX, align 4
  %11 = load i32, ptr %maxX, align 4
  %12 = load i32, ptr %minY, align 4
  %13 = load i32, ptr %maxY, align 4
  invoke void @_ZN7Imf_3_220precalculateTileInfoERKNS_15TileDescriptionEiiiiRPiS4_RiS5_(ptr noundef nonnull align 4 dereferenceable(16) %tileDesc, i32 noundef %10, i32 noundef %11, i32 noundef %12, i32 noundef %13, ptr noundef nonnull align 8 dereferenceable(8) %numXTiles, ptr noundef nonnull align 8 dereferenceable(8) %numYTiles, ptr noundef nonnull align 4 dereferenceable(4) %numXLevels, ptr noundef nonnull align 4 dereferenceable(4) %numYLevels)
          to label %invoke.cont unwind label %lpad

invoke.cont:                                      ; preds = %entry
  %call8 = invoke noalias noundef nonnull ptr @_Znwm(i64 noundef 40) #17
          to label %invoke.cont7 unwind label %lpad

invoke.cont7:                                     ; preds = %invoke.cont
  %mode = getelementptr inbounds %"class.Imf_3_2::TileDescription", ptr %tileDesc, i32 0, i32 2
  %14 = load i32, ptr %mode, align 4
  %15 = load i32, ptr %numXLevels, align 4
  %16 = load i32, ptr %numYLevels, align 4
  %17 = load ptr, ptr %numXTiles, align 8
  %18 = load ptr, ptr %numYTiles, align 8
  invoke void @_ZN7Imf_3_211TileOffsetsC1ENS_9LevelModeEiiPKiS3_(ptr noundef nonnull align 8 dereferenceable(40) %call8, i32 noundef %14, i32 noundef %15, i32 noundef %16, ptr noundef %17, ptr noundef %18)
          to label %invoke.cont10 unwind label %lpad9

invoke.cont10:                                    ; preds = %invoke.cont7
  store ptr %call8, ptr %tileOffsets, align 8
  %19 = load ptr, ptr %numXTiles, align 8
  %isnull = icmp eq ptr %19, null
  br i1 %isnull, label %delete.end, label %delete.notnull

delete.notnull:                                   ; preds = %invoke.cont10
  call void @_ZdaPv(ptr noundef %19) #18
  br label %delete.end

delete.end:                                       ; preds = %delete.notnull, %invoke.cont10
  %20 = load ptr, ptr %numYTiles, align 8
  %isnull11 = icmp eq ptr %20, null
  br i1 %isnull11, label %delete.end13, label %delete.notnull12

delete.notnull12:                                 ; preds = %delete.end
  call void @_ZdaPv(ptr noundef %20) #18
  br label %delete.end13

delete.end13:                                     ; preds = %delete.notnull12, %delete.end
  %21 = load ptr, ptr %tileOffsets, align 8
  ret ptr %21

lpad:                                             ; preds = %invoke.cont, %entry
  %22 = landingpad { ptr, i32 }
          catch ptr null
  %23 = extractvalue { ptr, i32 } %22, 0
  store ptr %23, ptr %exn.slot, align 8
  %24 = extractvalue { ptr, i32 } %22, 1
  store i32 %24, ptr %ehselector.slot, align 4
  br label %catch

lpad9:                                            ; preds = %invoke.cont7
  %25 = landingpad { ptr, i32 }
          catch ptr null
  %26 = extractvalue { ptr, i32 } %25, 0
  store ptr %26, ptr %exn.slot, align 8
  %27 = extractvalue { ptr, i32 } %25, 1
  store i32 %27, ptr %ehselector.slot, align 4
  call void @_ZdlPv(ptr noundef %call8) #18
  br label %catch

catch:                                            ; preds = %lpad9, %lpad
  %exn = load ptr, ptr %exn.slot, align 8
  %28 = call ptr @__cxa_begin_catch(ptr %exn) #3
  %29 = load ptr, ptr %numXTiles, align 8
  %isnull14 = icmp eq ptr %29, null
  br i1 %isnull14, label %delete.end16, label %delete.notnull15

delete.notnull15:                                 ; preds = %catch
  call void @_ZdaPv(ptr noundef %29) #18
  br label %delete.end16

delete.end16:                                     ; preds = %delete.notnull15, %catch
  %30 = load ptr, ptr %numYTiles, align 8
  %isnull17 = icmp eq ptr %30, null
  br i1 %isnull17, label %delete.end19, label %delete.notnull18

delete.notnull18:                                 ; preds = %delete.end16
  call void @_ZdaPv(ptr noundef %30) #18
  br label %delete.end19

delete.end19:                                     ; preds = %delete.notnull18, %delete.end16
  invoke void @__cxa_rethrow() #16
          to label %unreachable unwind label %lpad20

lpad20:                                           ; preds = %delete.end19
  %31 = landingpad { ptr, i32 }
          cleanup
  %32 = extractvalue { ptr, i32 } %31, 0
  store ptr %32, ptr %exn.slot, align 8
  %33 = extractvalue { ptr, i32 } %31, 1
  store i32 %33, ptr %ehselector.slot, align 4
  invoke void @__cxa_end_catch()
          to label %invoke.cont21 unwind label %terminate.lpad

invoke.cont21:                                    ; preds = %lpad20
  br label %eh.resume

try.cont:                                         ; No predecessors!
  call void @llvm.trap()
  unreachable

eh.resume:                                        ; preds = %invoke.cont21
  %exn22 = load ptr, ptr %exn.slot, align 8
  %sel = load i32, ptr %ehselector.slot, align 4
  %lpad.val = insertvalue { ptr, i32 } poison, ptr %exn22, 0
  %lpad.val23 = insertvalue { ptr, i32 } %lpad.val, i32 %sel, 1
  resume { ptr, i32 } %lpad.val23

terminate.lpad:                                   ; preds = %lpad20
  %34 = landingpad { ptr, i32 }
          catch ptr null
  %35 = extractvalue { ptr, i32 } %34, 0
  call void @__clang_call_terminate(ptr %35) #19
  unreachable

unreachable:                                      ; preds = %delete.end19
  unreachable
}