; Function Attrs: mustprogress uwtable
define hidden noundef nonnull ptr @_ZN7Imf_3_218MultiPartInputFile4Data17createTileOffsetsERKNS_6HeaderE(ptr nocapture nonnull readnone align 8 %this, ptr noundef nonnull align 8 dereferenceable(49) %header) local_unnamed_addr #3 align 2 personality ptr @__gxx_personality_v0 {
entry:
  %numXTiles = alloca ptr, align 8
  %numYTiles = alloca ptr, align 8
  %numXLevels = alloca i32, align 4
  %numYLevels = alloca i32, align 4
  %tileDesc = alloca %"class.Imf_3_2::TileDescription", align 4
  %call = tail call noundef nonnull align 4 dereferenceable(16) ptr @_ZNK7Imf_3_26Header10dataWindowEv(ptr noundef nonnull align 8 dereferenceable(49) %header)
  %0 = load i32, ptr %call, align 4
  %max = getelementptr inbounds i8, ptr %call, i64 8
  %1 = load i32, ptr %max, align 4
  %y = getelementptr inbounds i8, ptr %call, i64 4
  %2 = load i32, ptr %y, align 4
  %y5 = getelementptr inbounds i8, ptr %call, i64 12
  %3 = load i32, ptr %y5, align 4
  store ptr null, ptr %numXTiles, align 8
  store ptr null, ptr %numYTiles, align 8
  %call6 = tail call noundef nonnull align 4 dereferenceable(16) ptr @_ZNK7Imf_3_26Header15tileDescriptionEv(ptr noundef nonnull align 8 dereferenceable(49) %header)
  call void @llvm.memcpy.p0.p0.i64(ptr noundef nonnull align 4 dereferenceable(16) %tileDesc, ptr noundef nonnull align 4 dereferenceable(16) %call6, i64 16, i1 false)
  invoke void @_ZN7Imf_3_220precalculateTileInfoERKNS_15TileDescriptionEiiiiRPiS4_RiS5_(ptr noundef nonnull align 4 dereferenceable(16) %tileDesc, i32 noundef %0, i32 noundef %1, i32 noundef %2, i32 noundef %3, ptr noundef nonnull align 8 dereferenceable(8) %numXTiles, ptr noundef nonnull align 8 dereferenceable(8) %numYTiles, ptr noundef nonnull align 4 dereferenceable(4) %numXLevels, ptr noundef nonnull align 4 dereferenceable(4) %numYLevels)
          to label %invoke.cont unwind label %lpad

invoke.cont:                                      ; preds = %entry
  %call8 = invoke noalias noundef nonnull dereferenceable(40) ptr @_Znwm(i64 noundef 40) #24
          to label %invoke.cont7 unwind label %lpad

invoke.cont7:                                     ; preds = %invoke.cont
  %mode = getelementptr inbounds i8, ptr %tileDesc, i64 8
  %4 = load i32, ptr %mode, align 4
  %5 = load i32, ptr %numXLevels, align 4
  %6 = load i32, ptr %numYLevels, align 4
  %7 = load ptr, ptr %numXTiles, align 8
  %8 = load ptr, ptr %numYTiles, align 8
  invoke void @_ZN7Imf_3_211TileOffsetsC1ENS_9LevelModeEiiPKiS3_(ptr noundef nonnull align 8 dereferenceable(40) %call8, i32 noundef %4, i32 noundef %5, i32 noundef %6, ptr noundef %7, ptr noundef %8)
          to label %invoke.cont10 unwind label %lpad9

invoke.cont10:                                    ; preds = %invoke.cont7
  %9 = load ptr, ptr %numXTiles, align 8
  %isnull = icmp eq ptr %9, null
  br i1 %isnull, label %delete.end, label %delete.notnull

delete.notnull:                                   ; preds = %invoke.cont10
  call void @_ZdaPv(ptr noundef nonnull %9) #25
  br label %delete.end

delete.end:                                       ; preds = %delete.notnull, %invoke.cont10
  %10 = load ptr, ptr %numYTiles, align 8
  %isnull11 = icmp eq ptr %10, null
  br i1 %isnull11, label %delete.end13, label %delete.notnull12

delete.notnull12:                                 ; preds = %delete.end
  call void @_ZdaPv(ptr noundef nonnull %10) #25
  br label %delete.end13

delete.end13:                                     ; preds = %delete.notnull12, %delete.end
  ret ptr %call8

lpad:                                             ; preds = %invoke.cont, %entry
  %11 = landingpad { ptr, i32 }
          catch ptr null
  br label %catch

lpad9:                                            ; preds = %invoke.cont7
  %12 = landingpad { ptr, i32 }
          catch ptr null
  call void @_ZdlPv(ptr noundef nonnull %call8) #25
  br label %catch

catch:                                            ; preds = %lpad9, %lpad
  %.pn = phi { ptr, i32 } [ %12, %lpad9 ], [ %11, %lpad ]
  %exn.slot.0 = extractvalue { ptr, i32 } %.pn, 0
  %13 = call ptr @__cxa_begin_catch(ptr %exn.slot.0) #22
  %14 = load ptr, ptr %numXTiles, align 8
  %isnull14 = icmp eq ptr %14, null
  br i1 %isnull14, label %delete.end16, label %delete.notnull15

delete.notnull15:                                 ; preds = %catch
  call void @_ZdaPv(ptr noundef nonnull %14) #25
  br label %delete.end16

delete.end16:                                     ; preds = %delete.notnull15, %catch
  %15 = load ptr, ptr %numYTiles, align 8
  %isnull17 = icmp eq ptr %15, null
  br i1 %isnull17, label %delete.end19, label %delete.notnull18

delete.notnull18:                                 ; preds = %delete.end16
  call void @_ZdaPv(ptr noundef nonnull %15) #25
  br label %delete.end19

delete.end19:                                     ; preds = %delete.notnull18, %delete.end16
  invoke void @__cxa_rethrow() #23
          to label %unreachable unwind label %lpad20

lpad20:                                           ; preds = %delete.end19
  %16 = landingpad { ptr, i32 }
          cleanup
  invoke void @__cxa_end_catch()
          to label %eh.resume unwind label %terminate.lpad

eh.resume:                                        ; preds = %lpad20
  resume { ptr, i32 } %16

terminate.lpad:                                   ; preds = %lpad20
  %17 = landingpad { ptr, i32 }
          catch ptr null
  %18 = extractvalue { ptr, i32 } %17, 0
  call void @__clang_call_terminate(ptr %18) #26
  unreachable

unreachable:                                      ; preds = %delete.end19
  unreachable
}